

Microchip MPLAB XC8 Assembler V2.32 build 20210201212658 
                                                                                               Wed Nov  3 00:10:52 2021

Microchip MPLAB XC8 C Compiler v2.32 (Free license) build 20210201212658 Og1 
     1                           	processor	18F25K50
     2                           	fnconf	rparam,??,?,0
     3                           	pagewidth 120
     4                           	opt	flic
     5                           	psect	mediumconst,global,reloc=2,class=MEDIUMCONST,delta=1,noexec
     6                           	psect	cinit,global,reloc=2,class=CODE,delta=1
     7                           	psect	bssCOMRAM,global,class=COMRAM,space=1,delta=1,lowdata,noexec
     8                           	psect	cstackCOMRAM,global,class=COMRAM,space=1,delta=1,lowdata,noexec
     9                           	psect	text0,global,reloc=2,class=CODE,delta=1
    10                           	psect	text1,global,reloc=2,class=CODE,delta=1
    11                           	psect	intsave_regs,global,class=BIGRAM,space=1,delta=1,noexec
    12                           	psect	rparam,global,class=COMRAM,space=1,delta=1,noexec
    13  0000                     
    14                           ; Version 2.20
    15                           ; Generated 05/05/2020 GMT
    16                           ; 
    17                           ; Copyright © 2020, Microchip Technology Inc. and its subsidiaries ("Microchip")
    18                           ; All rights reserved.
    19                           ; 
    20                           ; This software is developed by Microchip Technology Inc. and its subsidiaries ("Microch
      +                          ip").
    21                           ; 
    22                           ; Redistribution and use in source and binary forms, with or without modification, are
    23                           ; permitted provided that the following conditions are met:
    24                           ; 
    25                           ;     1. Redistributions of source code must retain the above copyright notice, this lis
      +                          t of
    26                           ;        conditions and the following disclaimer.
    27                           ; 
    28                           ;     2. Redistributions in binary form must reproduce the above copyright notice, this 
      +                          list
    29                           ;        of conditions and the following disclaimer in the documentation and/or other
    30                           ;        materials provided with the distribution.
    31                           ; 
    32                           ;     3. Microchip's name may not be used to endorse or promote products derived from th
      +                          is
    33                           ;        software without specific prior written permission.
    34                           ; 
    35                           ; THIS SOFTWARE IS PROVIDED BY MICROCHIP "AS IS" AND ANY EXPRESS OR IMPLIED WARRANTIES,
    36                           ; INCLUDING, BUT NOT LIMITED TO, THE IMPLIED WARRANTIES OF MERCHANTABILITY AND FITNESS F
      +                          OR
    37                           ; PURPOSE ARE DISCLAIMED.  IN NO EVENT SHALL MICROCHIP BE LIABLE FOR ANY DIRECT, INDIREC
      +                          T,
    38                           ; INCIDENTAL, SPECIAL, EXEMPLARY, OR CONSEQUENTIAL DAMAGES (INCLUDING BUT NOT LIMITED TO
    39                           ; PROCUREMENT OF SUBSTITUTE GOODS OR SERVICES; LOSS OF USE, DATA OR PROFITS; OR BUSINESS
    40                           ; INTERRUPTION) HOWSOEVER CAUSED AND ON ANY THEORY OF LIABILITY, WHETHER IN CONTRACT, ST
      +                          RICT
    41                           ; LIABILITY, OR TORT (INCLUDING NEGLIGENCE OR OTHERWISE) ARISING IN ANY WAY OUT OF THE U
      +                          SE OF
    42                           ; THIS SOFTWARE, EVEN IF ADVISED OF THE POSSIBILITY OF SUCH DAMAGE.
    43                           ; 
    44                           ; 
    45                           ; Code-generator required, PIC18F25K50 Definitions
    46                           ; 
    47                           ; SFR Addresses
    48  0000                     
    49                           	psect	mediumconst
    50  007DFE                     __pmediumconst:
    51                           	callstack 0
    52  007DFE  00                 	db	0
    53  007DFF                     _data:
    54                           	callstack 0
    55  007DFF  08                 	db	8
    56  007E00  00                 	db	0
    57  007E01  15                 	db	21
    58  007E02  24                 	db	36
    59  007E03  00                 	db	0
    60  007E04  06                 	db	6
    61  007E05  38                 	db	56
    62  007E06  00                 	db	0
    63  007E07  00                 	db	0
    64  007E08  49                 	db	73
    65  007E09  30                 	db	48
    66  007E0A  00                 	db	0
    67  007E0B  17                 	db	23
    68  007E0C  15                 	db	21
    69  007E0D  35                 	db	53
    70  007E0E  0D                 	db	13
    71  007E0F  08                 	db	8
    72  007E10  00                 	db	0
    73  007E11  24                 	db	36
    74  007E12  40                 	db	64
    75  007E13  2B                 	db	43
    76  007E14  4D                 	db	77
    77  007E15  4E                 	db	78
    78  007E16  10                 	db	16
    79  007E17  53                 	db	83
    80  007E18  00                 	db	0
    81  007E19  00                 	db	0
    82  007E1A  24                 	db	36
    83  007E1B  19                 	db	25
    84  007E1C  00                 	db	0
    85  007E1D  4D                 	db	77
    86  007E1E  3F                 	db	63
    87  007E1F  00                 	db	0
    88  007E20  1D                 	db	29
    89  007E21  00                 	db	0
    90  007E22  4B                 	db	75
    91  007E23  00                 	db	0
    92  007E24  24                 	db	36
    93  007E25  00                 	db	0
    94  007E26  13                 	db	19
    95  007E27  0A                 	db	10
    96  007E28  65                 	db	101
    97  007E29  00                 	db	0
    98  007E2A  00                 	db	0
    99  007E2B  66                 	db	102
   100  007E2C  3E                 	db	62
   101  007E2D  10                 	db	16
   102  007E2E  60                 	db	96
   103  007E2F  68                 	db	104
   104  007E30  5E                 	db	94
   105  007E31  30                 	db	48
   106  007E32  19                 	db	25
   107  007E33  47                 	db	71
   108  007E34  69                 	db	105
   109  007E35  16                 	db	22
   110  007E36  56                 	db	86
   111  007E37  01                 	db	1
   112  007E38  1C                 	db	28
   113  007E39  00                 	db	0
   114  007E3A  1C                 	db	28
   115  007E3B  06                 	db	6
   116  007E3C  07                 	db	7
   117  007E3D  2D                 	db	45
   118  007E3E  29                 	db	41
   119  007E3F  24                 	db	36
   120  007E40  04                 	db	4
   121  007E41  2A                 	db	42
   122  007E42  0E                 	db	14
   123  007E43  05                 	db	5
   124  007E44  6C                 	db	108
   125  007E45  26                 	db	38
   126  007E46  72                 	db	114
   127  007E47  32                 	db	50
   128  007E48  5D                 	db	93
   129  007E49  77                 	db	119
   130  007E4A  4F                 	db	79
   131  007E4B  51                 	db	81
   132  007E4C  8C                 	db	140
   133  007E4D  38                 	db	56
   134  007E4E  29                 	db	41
   135  007E4F  1B                 	db	27
   136  007E50  29                 	db	41
   137  007E51  35                 	db	53
   138  007E52  7A                 	db	122
   139  007E53  67                 	db	103
   140  007E54  36                 	db	54
   141  007E55  41                 	db	65
   142  007E56  51                 	db	81
   143  007E57  67                 	db	103
   144  007E58  61                 	db	97
   145  007E59  50                 	db	80
   146  007E5A  79                 	db	121
   147  007E5B  1F                 	db	31
   148  007E5C  66                 	db	102
   149  007E5D  74                 	db	116
   150  007E5E  84                 	db	132
   151  007E5F  51                 	db	81
   152  007E60  9E                 	db	158
   153  007E61  40                 	db	64
   154  007E62  3C                 	db	60
   155  007E63  81                 	db	129
   156  007E64  91                 	db	145
   157  007E65  41                 	db	65
   158  007E66  96                 	db	150
   159  007E67  2C                 	db	44
   160  007E68  90                 	db	144
   161  007E69  6D                 	db	109
   162  007E6A  52                 	db	82
   163  007E6B  A6                 	db	166
   164  007E6C  66                 	db	102
   165  007E6D  AD                 	db	173
   166  007E6E  67                 	db	103
   167  007E6F  83                 	db	131
   168  007E70  74                 	db	116
   169  007E71  96                 	db	150
   170  007E72  99                 	db	153
   171  007E73  AF                 	db	175
   172  007E74  AC                 	db	172
   173  007E75  5B                 	db	91
   174  007E76  63                 	db	99
   175  007E77  9D                 	db	157
   176  007E78  4A                 	db	74
   177  007E79  B4                 	db	180
   178  007E7A  8B                 	db	139
   179  007E7B  96                 	db	150
   180  007E7C  57                 	db	87
   181  007E7D  8F                 	db	143
   182  007E7E  AF                 	db	175
   183  007E7F  54                 	db	84
   184  007E80  B9                 	db	185
   185  007E81  7B                 	db	123
   186  007E82  7A                 	db	122
   187  007E83  A5                 	db	165
   188  007E84  73                 	db	115
   189  007E85  B4                 	db	180
   190  007E86  9A                 	db	154
   191  007E87  93                 	db	147
   192  007E88  C6                 	db	198
   193  007E89  BF                 	db	191
   194  007E8A  88                 	db	136
   195  007E8B  86                 	db	134
   196  007E8C  9E                 	db	158
   197  007E8D  76                 	db	118
   198  007E8E  63                 	db	99
   199  007E8F  6D                 	db	109
   200  007E90  A4                 	db	164
   201  007E91  CB                 	db	203
   202  007E92  A5                 	db	165
   203  007E93  B1                 	db	177
   204  007E94  8A                 	db	138
   205  007E95  85                 	db	133
   206  007E96  61                 	db	97
   207  007E97  6E                 	db	110
   208  007E98  85                 	db	133
   209  007E99  D9                 	db	217
   210  007E9A  C2                 	db	194
   211  007E9B  C2                 	db	194
   212  007E9C  7A                 	db	122
   213  007E9D  93                 	db	147
   214  007E9E  CA                 	db	202
   215  007E9F  CF                 	db	207
   216  007EA0  A1                 	db	161
   217  007EA1  88                 	db	136
   218  007EA2  C6                 	db	198
   219  007EA3  A8                 	db	168
   220  007EA4  71                 	db	113
   221  007EA5  A0                 	db	160
   222  007EA6  6B                 	db	107
   223  007EA7  77                 	db	119
   224  007EA8  D9                 	db	217
   225  007EA9  9E                 	db	158
   226  007EAA  B6                 	db	182
   227  007EAB  85                 	db	133
   228  007EAC  B6                 	db	182
   229  007EAD  73                 	db	115
   230  007EAE  EB                 	db	235
   231  007EAF  D7                 	db	215
   232  007EB0  EF                 	db	239
   233  007EB1  97                 	db	151
   234  007EB2  C7                 	db	199
   235  007EB3  F0                 	db	240
   236  007EB4  ED                 	db	237
   237  007EB5  E2                 	db	226
   238  007EB6  C5                 	db	197
   239  007EB7  E0                 	db	224
   240  007EB8  B9                 	db	185
   241  007EB9  DE                 	db	222
   242  007EBA  87                 	db	135
   243  007EBB  CC                 	db	204
   244  007EBC  9F                 	db	159
   245  007EBD  BE                 	db	190
   246  007EBE  85                 	db	133
   247  007EBF  CA                 	db	202
   248  007EC0  FF                 	db	255
   249  007EC1  9D                 	db	157
   250  007EC2  B6                 	db	182
   251  007EC3  91                 	db	145
   252  007EC4  F5                 	db	245
   253  007EC5  EC                 	db	236
   254  007EC6  B1                 	db	177
   255  007EC7  9D                 	db	157
   256  007EC8  FB                 	db	251
   257  007EC9  D6                 	db	214
   258  007ECA  FF                 	db	255
   259  007ECB  AD                 	db	173
   260  007ECC  91                 	db	145
   261  007ECD  AF                 	db	175
   262  007ECE  C3                 	db	195
   263  007ECF  93                 	db	147
   264  007ED0  9A                 	db	154
   265  007ED1  D1                 	db	209
   266  007ED2  FF                 	db	255
   267  007ED3  C1                 	db	193
   268  007ED4  B3                 	db	179
   269  007ED5  F3                 	db	243
   270  007ED6  AE                 	db	174
   271  007ED7  B2                 	db	178
   272  007ED8  F0                 	db	240
   273  007ED9  AF                 	db	175
   274  007EDA  B7                 	db	183
   275  007EDB  FF                 	db	255
   276  007EDC  B5                 	db	181
   277  007EDD  BA                 	db	186
   278  007EDE  A9                 	db	169
   279  007EDF  B1                 	db	177
   280  007EE0  A7                 	db	167
   281  007EE1  FC                 	db	252
   282  007EE2  FF                 	db	255
   283  007EE3  F7                 	db	247
   284  007EE4  DC                 	db	220
   285  007EE5  BC                 	db	188
   286  007EE6  F1                 	db	241
   287  007EE7  FF                 	db	255
   288  007EE8  E9                 	db	233
   289  007EE9  FF                 	db	255
   290  007EEA  DC                 	db	220
   291  007EEB  FF                 	db	255
   292  007EEC  FF                 	db	255
   293  007EED  E5                 	db	229
   294  007EEE  DE                 	db	222
   295  007EEF  FF                 	db	255
   296  007EF0  FF                 	db	255
   297  007EF1  FB                 	db	251
   298  007EF2  C7                 	db	199
   299  007EF3  FF                 	db	255
   300  007EF4  FF                 	db	255
   301  007EF5  FF                 	db	255
   302  007EF6  FF                 	db	255
   303  007EF7  FF                 	db	255
   304  007EF8  D5                 	db	213
   305  007EF9  D8                 	db	216
   306  007EFA  EC                 	db	236
   307  007EFB  F1                 	db	241
   308  007EFC  BD                 	db	189
   309  007EFD  FF                 	db	255
   310  007EFE  FF                 	db	255
   311  007EFF  D7                 	db	215
   312  007F00  D7                 	db	215
   313  007F01  EF                 	db	239
   314  007F02  FF                 	db	255
   315  007F03  C2                 	db	194
   316  007F04  BD                 	db	189
   317  007F05  CE                 	db	206
   318  007F06  FF                 	db	255
   319  007F07  FB                 	db	251
   320  007F08  D6                 	db	214
   321  007F09  FF                 	db	255
   322  007F0A  FF                 	db	255
   323  007F0B  FF                 	db	255
   324  007F0C  D1                 	db	209
   325  007F0D  C0                 	db	192
   326  007F0E  D2                 	db	210
   327  007F0F  FF                 	db	255
   328  007F10  FF                 	db	255
   329  007F11  FF                 	db	255
   330  007F12  B6                 	db	182
   331  007F13  E8                 	db	232
   332  007F14  FD                 	db	253
   333  007F15  CD                 	db	205
   334  007F16  BE                 	db	190
   335  007F17  FF                 	db	255
   336  007F18  C8                 	db	200
   337  007F19  ED                 	db	237
   338  007F1A  B8                 	db	184
   339  007F1B  FF                 	db	255
   340  007F1C  FF                 	db	255
   341  007F1D  E6                 	db	230
   342  007F1E  FF                 	db	255
   343  007F1F  E0                 	db	224
   344  007F20  C4                 	db	196
   345  007F21  D1                 	db	209
   346  007F22  D7                 	db	215
   347  007F23  F2                 	db	242
   348  007F24  E7                 	db	231
   349  007F25  B6                 	db	182
   350  007F26  ED                 	db	237
   351  007F27  9E                 	db	158
   352  007F28  E6                 	db	230
   353  007F29  F1                 	db	241
   354  007F2A  DE                 	db	222
   355  007F2B  B6                 	db	182
   356  007F2C  F3                 	db	243
   357  007F2D  A2                 	db	162
   358  007F2E  C4                 	db	196
   359  007F2F  E1                 	db	225
   360  007F30  A5                 	db	165
   361  007F31  E1                 	db	225
   362  007F32  A1                 	db	161
   363  007F33  E6                 	db	230
   364  007F34  B9                 	db	185
   365  007F35  BA                 	db	186
   366  007F36  FF                 	db	255
   367  007F37  C8                 	db	200
   368  007F38  CF                 	db	207
   369  007F39  F3                 	db	243
   370  007F3A  D3                 	db	211
   371  007F3B  CB                 	db	203
   372  007F3C  EC                 	db	236
   373  007F3D  CC                 	db	204
   374  007F3E  C9                 	db	201
   375  007F3F  D3                 	db	211
   376  007F40  AF                 	db	175
   377  007F41  91                 	db	145
   378  007F42  89                 	db	137
   379  007F43  F8                 	db	248
   380  007F44  85                 	db	133
   381  007F45  8E                 	db	142
   382  007F46  BD                 	db	189
   383  007F47  D0                 	db	208
   384  007F48  E2                 	db	226
   385  007F49  94                 	db	148
   386  007F4A  D2                 	db	210
   387  007F4B  A2                 	db	162
   388  007F4C  BC                 	db	188
   389  007F4D  AF                 	db	175
   390  007F4E  B0                 	db	176
   391  007F4F  7D                 	db	125
   392  007F50  C3                 	db	195
   393  007F51  B9                 	db	185
   394  007F52  99                 	db	153
   395  007F53  BE                 	db	190
   396  007F54  86                 	db	134
   397  007F55  8D                 	db	141
   398  007F56  91                 	db	145
   399  007F57  AE                 	db	174
   400  007F58  89                 	db	137
   401  007F59  D5                 	db	213
   402  007F5A  6C                 	db	108
   403  007F5B  DF                 	db	223
   404  007F5C  D3                 	db	211
   405  007F5D  DF                 	db	223
   406  007F5E  B6                 	db	182
   407  007F5F  D1                 	db	209
   408  007F60  9B                 	db	155
   409  007F61  68                 	db	104
   410  007F62  67                 	db	103
   411  007F63  D3                 	db	211
   412  007F64  85                 	db	133
   413  007F65  A0                 	db	160
   414  007F66  93                 	db	147
   415  007F67  88                 	db	136
   416  007F68  98                 	db	152
   417  007F69  91                 	db	145
   418  007F6A  C5                 	db	197
   419  007F6B  98                 	db	152
   420  007F6C  79                 	db	121
   421  007F6D  54                 	db	84
   422  007F6E  A5                 	db	165
   423  007F6F  64                 	db	100
   424  007F70  85                 	db	133
   425  007F71  54                 	db	84
   426  007F72  A0                 	db	160
   427  007F73  B7                 	db	183
   428  007F74  A6                 	db	166
   429  007F75  60                 	db	96
   430  007F76  69                 	db	105
   431  007F77  9C                 	db	156
   432  007F78  B8                 	db	184
   433  007F79  BF                 	db	191
   434  007F7A  89                 	db	137
   435  007F7B  4F                 	db	79
   436  007F7C  4C                 	db	76
   437  007F7D  95                 	db	149
   438  007F7E  6D                 	db	109
   439  007F7F  69                 	db	105
   440  007F80  53                 	db	83
   441  007F81  A4                 	db	164
   442  007F82  6A                 	db	106
   443  007F83  A0                 	db	160
   444  007F84  3D                 	db	61
   445  007F85  93                 	db	147
   446  007F86  A4                 	db	164
   447  007F87  46                 	db	70
   448  007F88  7E                 	db	126
   449  007F89  47                 	db	71
   450  007F8A  89                 	db	137
   451  007F8B  41                 	db	65
   452  007F8C  8B                 	db	139
   453  007F8D  63                 	db	99
   454  007F8E  6C                 	db	108
   455  007F8F  7E                 	db	126
   456  007F90  97                 	db	151
   457  007F91  35                 	db	53
   458  007F92  89                 	db	137
   459  007F93  AB                 	db	171
   460  007F94  3E                 	db	62
   461  007F95  2F                 	db	47
   462  007F96  74                 	db	116
   463  007F97  76                 	db	118
   464  007F98  A5                 	db	165
   465  007F99  55                 	db	85
   466  007F9A  5A                 	db	90
   467  007F9B  72                 	db	114
   468  007F9C  8E                 	db	142
   469  007F9D  69                 	db	105
   470  007F9E  7B                 	db	123
   471  007F9F  9A                 	db	154
   472  007FA0  3B                 	db	59
   473  007FA1  76                 	db	118
   474  007FA2  4A                 	db	74
   475  007FA3  94                 	db	148
   476  007FA4  37                 	db	55
   477  007FA5  85                 	db	133
   478  007FA6  92                 	db	146
   479  007FA7  91                 	db	145
   480  007FA8  4E                 	db	78
   481  007FA9  90                 	db	144
   482  007FAA  7D                 	db	125
   483  007FAB  64                 	db	100
   484  007FAC  69                 	db	105
   485  007FAD  38                 	db	56
   486  007FAE  34                 	db	52
   487  007FAF  2A                 	db	42
   488  007FB0  7E                 	db	126
   489  007FB1  81                 	db	129
   490  007FB2  86                 	db	134
   491  007FB3  84                 	db	132
   492  007FB4  0D                 	db	13
   493  007FB5  70                 	db	112
   494  007FB6  13                 	db	19
   495  007FB7  12                 	db	18
   496  007FB8  20                 	db	32
   497  007FB9  2C                 	db	44
   498  007FBA  6B                 	db	107
   499  007FBB  08                 	db	8
   500  007FBC  40                 	db	64
   501  007FBD  18                 	db	24
   502  007FBE  04                 	db	4
   503  007FBF  27                 	db	39
   504  007FC0  00                 	db	0
   505  007FC1  34                 	db	52
   506  007FC2  6A                 	db	106
   507  007FC3  28                 	db	40
   508  007FC4  20                 	db	32
   509  007FC5  69                 	db	105
   510  007FC6  0F                 	db	15
   511  007FC7  56                 	db	86
   512  007FC8  03                 	db	3
   513  007FC9  75                 	db	117
   514  007FCA  33                 	db	51
   515  007FCB  00                 	db	0
   516  007FCC  49                 	db	73
   517  007FCD  19                 	db	25
   518  007FCE  51                 	db	81
   519  007FCF  4A                 	db	74
   520  007FD0  63                 	db	99
   521  007FD1  00                 	db	0
   522  007FD2  6D                 	db	109
   523  007FD3  3E                 	db	62
   524  007FD4  54                 	db	84
   525  007FD5  13                 	db	19
   526  007FD6  59                 	db	89
   527  007FD7  34                 	db	52
   528  007FD8  5E                 	db	94
   529  007FD9  5A                 	db	90
   530  007FDA  5B                 	db	91
   531  007FDB  2D                 	db	45
   532  007FDC  37                 	db	55
   533  007FDD  45                 	db	69
   534  007FDE  4F                 	db	79
   535  007FDF  4E                 	db	78
   536  007FE0  4F                 	db	79
   537  007FE1  00                 	db	0
   538  007FE2  03                 	db	3
   539  007FE3  00                 	db	0
   540  007FE4  00                 	db	0
   541  007FE5  39                 	db	57
   542  007FE6  00                 	db	0
   543  007FE7  3B                 	db	59
   544  007FE8  24                 	db	36
   545  007FE9  20                 	db	32
   546  007FEA  00                 	db	0
   547  007FEB  05                 	db	5
   548  007FEC  00                 	db	0
   549  007FED  00                 	db	0
   550  007FEE  3A                 	db	58
   551  007FEF  00                 	db	0
   552  007FF0  1A                 	db	26
   553  007FF1  43                 	db	67
   554  007FF2  00                 	db	0
   555  007FF3  00                 	db	0
   556  007FF4  24                 	db	36
   557  007FF5  00                 	db	0
   558  007FF6  3D                 	db	61
   559  007FF7  00                 	db	0
   560  007FF8  33                 	db	51
   561  007FF9  00                 	db	0
   562  007FFA  05                 	db	5
   563  007FFB  00                 	db	0
   564  007FFC  00                 	db	0
   565  007FFD  03                 	db	3
   566  007FFE  1A                 	db	26
   567  007FFF                     __end_of_data:
   568                           	callstack 0
   569  0000                     _ANSELA	set	3931
   570  0000                     _PORTAbits	set	3968
   571  0000                     _PORTCbits	set	3970
   572  0000                     _TRISAbits	set	3986
   573  0000                     _TRISCbits	set	3988
   574  0000                     _LATC	set	3979
   575  0000                     _TRISC	set	3988
   576  0000                     _LATB	set	3978
   577  0000                     _TRISB	set	3987
   578  0000                     _CM1CON0	set	3992
   579  0000                     _ADCON1	set	4033
   580  0000                     _LATA	set	3977
   581  0000                     _TRISA	set	3986
   582  0000                     _ACTCON	set	4021
   583  0000                     _OSCCON2	set	4050
   584  0000                     _OSCCON	set	4051
   585  0000                     _OSCTUNE	set	3995
   586  007FFF  00                 	db	0	; dummy byte at the end
   587  0000                     
   588                           ; #config settings
   589                           
   590                           	psect	cinit
   591  007B0C                     __pcinit:
   592                           	callstack 0
   593  007B0C                     start_initialization:
   594                           	callstack 0
   595  007B0C                     __initialization:
   596                           	callstack 0
   597                           
   598                           ; Clear objects allocated to COMRAM (8 bytes)
   599  007B0C  EE00  F014         	lfsr	0,__pbssCOMRAM
   600  007B10  0E08               	movlw	8
   601  007B12                     clear_0:
   602  007B12  6AEE               	clrf	postinc0,c
   603  007B14  06E8               	decf	wreg,f,c
   604  007B16  E1FD               	bnz	clear_0
   605  007B18                     end_of_initialization:
   606                           	callstack 0
   607  007B18                     __end_of__initialization:
   608                           	callstack 0
   609  007B18  0E00               	movlw	low (__Lmediumconst shr (0+16))
   610  007B1A  6EF8               	movwf	tblptru,c
   611  007B1C  0100               	movlb	0
   612  007B1E  EFAF  F03D         	goto	_main	;jump to C main() function
   613                           
   614                           	psect	bssCOMRAM
   615  000014                     __pbssCOMRAM:
   616                           	callstack 0
   617  000014                     	ds	8
   618                           
   619                           	psect	cstackCOMRAM
   620  000001                     __pcstackCOMRAM:
   621                           	callstack 0
   622  000001                     ??_main:
   623                           
   624                           ; 1 bytes @ 0x0
   625  000001                     	ds	1
   626  000002                     main@dataQueu:
   627                           	callstack 0
   628                           
   629                           ; 8 bytes @ 0x1
   630  000002                     	ds	8
   631  00000A                     main@i_294:
   632                           	callstack 0
   633                           
   634                           ; 4 bytes @ 0x9
   635  00000A                     	ds	4
   636  00000E                     main@lastIndex:
   637                           	callstack 0
   638                           
   639                           ; 1 bytes @ 0xD
   640  00000E                     	ds	1
   641  00000F                     main@counter:
   642                           	callstack 0
   643                           
   644                           ; 2 bytes @ 0xE
   645  00000F                     	ds	2
   646  000011                     main@i:
   647                           	callstack 0
   648                           
   649                           ; 1 bytes @ 0x10
   650  000011                     	ds	1
   651  000012                     main@i_293:
   652                           	callstack 0
   653                           
   654                           ; 1 bytes @ 0x11
   655  000012                     	ds	1
   656  000013                     main@average:
   657                           	callstack 0
   658                           
   659                           ; 1 bytes @ 0x12
   660  000013                     	ds	1
   661                           
   662 ;;
   663 ;;Main: autosize = 0, tempsize = 1, incstack = 0, save=0
   664 ;;
   665 ;; *************** function _main *****************
   666 ;; Defined at:
   667 ;;		line 65 in file "mainL1.c"
   668 ;; Parameters:    Size  Location     Type
   669 ;;		None
   670 ;; Auto vars:     Size  Location     Type
   671 ;;  i               1   17[COMRAM] unsigned char 
   672 ;;  i               1   16[COMRAM] unsigned char 
   673 ;;  i               4    9[COMRAM] unsigned long 
   674 ;;  dataQueu        8    1[COMRAM] unsigned char [8]
   675 ;;  counter         2   14[COMRAM] int 
   676 ;;  average         1   18[COMRAM] unsigned char 
   677 ;;  lastIndex       1   13[COMRAM] unsigned char 
   678 ;;  isRaw           1    0        unsigned char 
   679 ;;  restartData     1    0        unsigned char 
   680 ;; Return value:  Size  Location     Type
   681 ;;                  1    wreg      void 
   682 ;; Registers used:
   683 ;;		wreg, fsr2l, fsr2h, status,2, status,0, tblptrl, tblptrh, tblptru, cstack
   684 ;; Tracked objects:
   685 ;;		On entry : 0/0
   686 ;;		On exit  : 0/0
   687 ;;		Unchanged: 0/0
   688 ;; Data sizes:     COMRAM   BANK0   BANK1   BANK2   BANK3   BANK4   BANK5   BANK6   BANK7
   689 ;;      Params:         0       0       0       0       0       0       0       0       0
   690 ;;      Locals:        18       0       0       0       0       0       0       0       0
   691 ;;      Temps:          1       0       0       0       0       0       0       0       0
   692 ;;      Totals:        19       0       0       0       0       0       0       0       0
   693 ;;Total ram usage:       19 bytes
   694 ;; Hardware stack levels required when called: 1
   695 ;; This function calls:
   696 ;;		_initChip
   697 ;; This function is called by:
   698 ;;		Startup code after reset
   699 ;; This function uses a non-reentrant model
   700 ;;
   701                           
   702                           	psect	text0
   703  007B5E                     __ptext0:
   704                           	callstack 0
   705  007B5E                     _main:
   706                           	callstack 30
   707  007B5E                     
   708                           ;mainL1.c: 66:     unsigned char dataQueu[] = {0, 0, 0, 0, 0, 0, 0, 0};
   709  007B5E  EE20  F002         	lfsr	2,main@dataQueu
   710  007B62  0E07               	movlw	7
   711  007B64                     u11:
   712  007B64  6ADE               	clrf	postinc2,c
   713  007B66  06E8               	decf	wreg,f,c
   714  007B68  E2FD               	bc	u11
   715  007B6A                     
   716                           ;mainL1.c: 67:     int counter = 0;
   717  007B6A  0E00               	movlw	0
   718  007B6C  6E10               	movwf	(main@counter+1)^0,c
   719  007B6E  0E00               	movlw	0
   720  007B70  6E0F               	movwf	main@counter^0,c
   721  007B72                     
   722                           ;mainL1.c: 68:     char lastIndex = 0;
   723  007B72  0E00               	movlw	0
   724  007B74  6E0E               	movwf	main@lastIndex^0,c
   725  007B76                     
   726                           ;mainL1.c: 69:     unsigned char average = 0;
   727  007B76  0E00               	movlw	0
   728  007B78  6E13               	movwf	main@average^0,c
   729  007B7A                     
   730                           ;mainL1.c: 70:     char restartData, isRaw;;mainL1.c: 72:     initChip();
   731  007B7A  EC91  F03D         	call	_initChip	;wreg free
   732  007B7E                     l769:
   733  007B7E  5082               	movf	130,w,c	;volatile
   734  007B80  5080               	movf	128,w,c	;volatile
   735  007B82                     
   736                           ;mainL1.c: 79:         if (PORTCbits.RC0 == 0) {
   737  007B82  B082               	btfsc	130,0,c	;volatile
   738  007B84  EFC6  F03D         	goto	u21
   739  007B88  EFC8  F03D         	goto	u20
   740  007B8C                     u21:
   741  007B8C  EFE1  F03D         	goto	l789
   742  007B90                     u20:
   743  007B90                     
   744                           ;mainL1.c: 80:             for (char i = 0; i < 8; i++) {
   745  007B90  0E00               	movlw	0
   746  007B92  6E11               	movwf	main@i^0,c
   747  007B94                     l781:
   748                           
   749                           ;mainL1.c: 81:                 dataQueu[i] = 0;
   750  007B94  0E02               	movlw	low main@dataQueu
   751  007B96  2411               	addwf	main@i^0,w,c
   752  007B98  6ED9               	movwf	fsr2l,c
   753  007B9A  6ADA               	clrf	fsr2h,c
   754  007B9C  0E00               	movlw	high main@dataQueu
   755  007B9E  22DA               	addwfc	fsr2h,f,c
   756  007BA0  0E00               	movlw	0
   757  007BA2  6EDF               	movwf	indf2,c
   758  007BA4                     
   759                           ;mainL1.c: 82:             }
   760  007BA4  2A11               	incf	main@i^0,f,c
   761  007BA6  0E07               	movlw	7
   762  007BA8  6411               	cpfsgt	main@i^0,c
   763  007BAA  EFD9  F03D         	goto	u31
   764  007BAE  EFDB  F03D         	goto	u30
   765  007BB2                     u31:
   766  007BB2  EFCA  F03D         	goto	l781
   767  007BB6                     u30:
   768  007BB6                     
   769                           ;mainL1.c: 83:             counter = 0;
   770  007BB6  0E00               	movlw	0
   771  007BB8  6E10               	movwf	(main@counter+1)^0,c
   772  007BBA  0E00               	movlw	0
   773  007BBC  6E0F               	movwf	main@counter^0,c
   774                           
   775                           ;mainL1.c: 84:             lastIndex = 0;
   776  007BBE  0E00               	movlw	0
   777  007BC0  6E0E               	movwf	main@lastIndex^0,c
   778  007BC2                     l789:
   779                           
   780                           ;mainL1.c: 88:         if (PORTAbits.RA4 == 1) {
   781  007BC2  A880               	btfss	128,4,c	;volatile
   782  007BC4  EFE6  F03D         	goto	u41
   783  007BC8  EFE8  F03D         	goto	u40
   784  007BCC                     u41:
   785  007BCC  EF13  F03E         	goto	l805
   786  007BD0                     u40:
   787  007BD0                     
   788                           ;mainL1.c: 89:             dataQueu[lastIndex] = data[counter];
   789  007BD0  0EFF               	movlw	low _data
   790  007BD2  240F               	addwf	main@counter^0,w,c
   791  007BD4  6EF6               	movwf	tblptrl,c
   792  007BD6  0E7D               	movlw	high _data
   793  007BD8  2010               	addwfc	(main@counter+1)^0,w,c
   794  007BDA  6EF7               	movwf	tblptrh,c
   795  007BDC                     	if	0	;There are less than 3 active tblptr bytes
   796  007BDC                     	endif
   797  007BDC  0E02               	movlw	low main@dataQueu
   798  007BDE  240E               	addwf	main@lastIndex^0,w,c
   799  007BE0  6ED9               	movwf	fsr2l,c
   800  007BE2  6ADA               	clrf	fsr2h,c
   801  007BE4  0E00               	movlw	high main@dataQueu
   802  007BE6  22DA               	addwfc	fsr2h,f,c
   803  007BE8  0008               	tblrd		*
   804  007BEA  CFF5 FFDF          	movff	tablat,indf2
   805  007BEE                     
   806                           ;mainL1.c: 91:             for (char i = 0; i < 8; i++) {
   807  007BEE  0E00               	movlw	0
   808  007BF0  6E12               	movwf	main@i_293^0,c
   809  007BF2                     l799:
   810                           
   811                           ;mainL1.c: 93:                 average += dataQueu[i] >> 3;
   812  007BF2  0E02               	movlw	low main@dataQueu
   813  007BF4  2412               	addwf	main@i_293^0,w,c
   814  007BF6  6ED9               	movwf	fsr2l,c
   815  007BF8  6ADA               	clrf	fsr2h,c
   816  007BFA  0E00               	movlw	high main@dataQueu
   817  007BFC  22DA               	addwfc	fsr2h,f,c
   818  007BFE  50DF               	movf	indf2,w,c
   819  007C00  6E01               	movwf	??_main^0,c
   820  007C02  90D8               	bcf	status,0,c
   821  007C04  3201               	rrcf	??_main^0,f,c
   822  007C06  90D8               	bcf	status,0,c
   823  007C08  3201               	rrcf	??_main^0,f,c
   824  007C0A  90D8               	bcf	status,0,c
   825  007C0C  3001               	rrcf	??_main^0,w,c
   826  007C0E  2613               	addwf	main@average^0,f,c
   827  007C10                     
   828                           ;mainL1.c: 94:             }
   829  007C10  2A12               	incf	main@i_293^0,f,c
   830  007C12  0E07               	movlw	7
   831  007C14  6412               	cpfsgt	main@i_293^0,c
   832  007C16  EF0F  F03E         	goto	u51
   833  007C1A  EF11  F03E         	goto	u50
   834  007C1E                     u51:
   835  007C1E  EFF9  F03D         	goto	l799
   836  007C22                     u50:
   837  007C22  EF1C  F03E         	goto	l807
   838  007C26                     l805:
   839                           
   840                           ;mainL1.c: 96:             average = data[counter];
   841  007C26  0EFF               	movlw	low _data
   842  007C28  240F               	addwf	main@counter^0,w,c
   843  007C2A  6EF6               	movwf	tblptrl,c
   844  007C2C  0E7D               	movlw	high _data
   845  007C2E  2010               	addwfc	(main@counter+1)^0,w,c
   846  007C30  6EF7               	movwf	tblptrh,c
   847  007C32                     	if	0	;There are less than 3 active tblptr bytes
   848  007C32                     	endif
   849  007C32  0008               	tblrd		*
   850  007C34  CFF5 F013          	movff	tablat,main@average
   851  007C38                     l807:
   852                           
   853                           ;mainL1.c: 100:         if (average < 16) {
   854  007C38  0E10               	movlw	16
   855  007C3A  6013               	cpfslt	main@average^0,c
   856  007C3C  EF22  F03E         	goto	u61
   857  007C40  EF24  F03E         	goto	u60
   858  007C44                     u61:
   859  007C44  EF28  F03E         	goto	l811
   860  007C48                     u60:
   861  007C48                     
   862                           ;mainL1.c: 101:             LATB = 0b00000000;
   863  007C48  0E00               	movlw	0
   864  007C4A  6E8A               	movwf	138,c	;volatile
   865                           
   866                           ;mainL1.c: 102:         } else if (average >= 16 && average < 48) {
   867  007C4C  EFBF  F03E         	goto	l857
   868  007C50                     l811:
   869  007C50  0E0F               	movlw	15
   870  007C52  6413               	cpfsgt	main@average^0,c
   871  007C54  EF2E  F03E         	goto	u71
   872  007C58  EF30  F03E         	goto	u70
   873  007C5C                     u71:
   874  007C5C  EF3C  F03E         	goto	l817
   875  007C60                     u70:
   876  007C60  0E30               	movlw	48
   877  007C62  6013               	cpfslt	main@average^0,c
   878  007C64  EF36  F03E         	goto	u81
   879  007C68  EF38  F03E         	goto	u80
   880  007C6C                     u81:
   881  007C6C  EF3C  F03E         	goto	l817
   882  007C70                     u80:
   883  007C70                     
   884                           ;mainL1.c: 103:             LATB = 0b00000001;
   885  007C70  0E01               	movlw	1
   886  007C72  6E8A               	movwf	138,c	;volatile
   887                           
   888                           ;mainL1.c: 104:         } else if (average >= 48 && average < 80) {
   889  007C74  EFBF  F03E         	goto	l857
   890  007C78                     l817:
   891  007C78  0E2F               	movlw	47
   892  007C7A  6413               	cpfsgt	main@average^0,c
   893  007C7C  EF42  F03E         	goto	u91
   894  007C80  EF44  F03E         	goto	u90
   895  007C84                     u91:
   896  007C84  EF50  F03E         	goto	l823
   897  007C88                     u90:
   898  007C88  0E50               	movlw	80
   899  007C8A  6013               	cpfslt	main@average^0,c
   900  007C8C  EF4A  F03E         	goto	u101
   901  007C90  EF4C  F03E         	goto	u100
   902  007C94                     u101:
   903  007C94  EF50  F03E         	goto	l823
   904  007C98                     u100:
   905  007C98                     
   906                           ;mainL1.c: 105:             LATB = 0b00000011;
   907  007C98  0E03               	movlw	3
   908  007C9A  6E8A               	movwf	138,c	;volatile
   909                           
   910                           ;mainL1.c: 106:         } else if (average >= 80 && average < 112) {
   911  007C9C  EFBF  F03E         	goto	l857
   912  007CA0                     l823:
   913  007CA0  0E4F               	movlw	79
   914  007CA2  6413               	cpfsgt	main@average^0,c
   915  007CA4  EF56  F03E         	goto	u111
   916  007CA8  EF58  F03E         	goto	u110
   917  007CAC                     u111:
   918  007CAC  EF64  F03E         	goto	l829
   919  007CB0                     u110:
   920  007CB0  0E70               	movlw	112
   921  007CB2  6013               	cpfslt	main@average^0,c
   922  007CB4  EF5E  F03E         	goto	u121
   923  007CB8  EF60  F03E         	goto	u120
   924  007CBC                     u121:
   925  007CBC  EF64  F03E         	goto	l829
   926  007CC0                     u120:
   927  007CC0                     
   928                           ;mainL1.c: 107:             LATB = 0b00000111;
   929  007CC0  0E07               	movlw	7
   930  007CC2  6E8A               	movwf	138,c	;volatile
   931                           
   932                           ;mainL1.c: 108:         } else if (average >= 112 && average < 144) {
   933  007CC4  EFBF  F03E         	goto	l857
   934  007CC8                     l829:
   935  007CC8  0E6F               	movlw	111
   936  007CCA  6413               	cpfsgt	main@average^0,c
   937  007CCC  EF6A  F03E         	goto	u131
   938  007CD0  EF6C  F03E         	goto	u130
   939  007CD4                     u131:
   940  007CD4  EF78  F03E         	goto	l835
   941  007CD8                     u130:
   942  007CD8  0E90               	movlw	144
   943  007CDA  6013               	cpfslt	main@average^0,c
   944  007CDC  EF72  F03E         	goto	u141
   945  007CE0  EF74  F03E         	goto	u140
   946  007CE4                     u141:
   947  007CE4  EF78  F03E         	goto	l835
   948  007CE8                     u140:
   949  007CE8                     
   950                           ;mainL1.c: 109:             LATB = 0b00001111;
   951  007CE8  0E0F               	movlw	15
   952  007CEA  6E8A               	movwf	138,c	;volatile
   953                           
   954                           ;mainL1.c: 110:         } else if (average >= 144 && average < 176) {
   955  007CEC  EFBF  F03E         	goto	l857
   956  007CF0                     l835:
   957  007CF0  0E8F               	movlw	143
   958  007CF2  6413               	cpfsgt	main@average^0,c
   959  007CF4  EF7E  F03E         	goto	u151
   960  007CF8  EF80  F03E         	goto	u150
   961  007CFC                     u151:
   962  007CFC  EF8C  F03E         	goto	l841
   963  007D00                     u150:
   964  007D00  0EB0               	movlw	176
   965  007D02  6013               	cpfslt	main@average^0,c
   966  007D04  EF86  F03E         	goto	u161
   967  007D08  EF88  F03E         	goto	u160
   968  007D0C                     u161:
   969  007D0C  EF8C  F03E         	goto	l841
   970  007D10                     u160:
   971  007D10                     
   972                           ;mainL1.c: 111:             LATB = 0b00011111;
   973  007D10  0E1F               	movlw	31
   974  007D12  6E8A               	movwf	138,c	;volatile
   975                           
   976                           ;mainL1.c: 112:         } else if (average >= 176 && average < 208) {
   977  007D14  EFBF  F03E         	goto	l857
   978  007D18                     l841:
   979  007D18  0EAF               	movlw	175
   980  007D1A  6413               	cpfsgt	main@average^0,c
   981  007D1C  EF92  F03E         	goto	u171
   982  007D20  EF94  F03E         	goto	u170
   983  007D24                     u171:
   984  007D24  EFA0  F03E         	goto	l847
   985  007D28                     u170:
   986  007D28  0ED0               	movlw	208
   987  007D2A  6013               	cpfslt	main@average^0,c
   988  007D2C  EF9A  F03E         	goto	u181
   989  007D30  EF9C  F03E         	goto	u180
   990  007D34                     u181:
   991  007D34  EFA0  F03E         	goto	l847
   992  007D38                     u180:
   993  007D38                     
   994                           ;mainL1.c: 113:             LATB = 0b00111111;
   995  007D38  0E3F               	movlw	63
   996  007D3A  6E8A               	movwf	138,c	;volatile
   997                           
   998                           ;mainL1.c: 114:         } else if (average >= 208 && average < 240) {
   999  007D3C  EFBF  F03E         	goto	l857
  1000  007D40                     l847:
  1001  007D40  0ECF               	movlw	207
  1002  007D42  6413               	cpfsgt	main@average^0,c
  1003  007D44  EFA6  F03E         	goto	u191
  1004  007D48  EFA8  F03E         	goto	u190
  1005  007D4C                     u191:
  1006  007D4C  EFB4  F03E         	goto	l853
  1007  007D50                     u190:
  1008  007D50  0EF0               	movlw	240
  1009  007D52  6013               	cpfslt	main@average^0,c
  1010  007D54  EFAE  F03E         	goto	u201
  1011  007D58  EFB0  F03E         	goto	u200
  1012  007D5C                     u201:
  1013  007D5C  EFB4  F03E         	goto	l853
  1014  007D60                     u200:
  1015  007D60                     
  1016                           ;mainL1.c: 115:             LATB = 0b01111111;
  1017  007D60  0E7F               	movlw	127
  1018  007D62  6E8A               	movwf	138,c	;volatile
  1019                           
  1020                           ;mainL1.c: 116:         } else if (average >= 240) {
  1021  007D64  EFBF  F03E         	goto	l857
  1022  007D68                     l853:
  1023  007D68  0EEF               	movlw	239
  1024  007D6A  6413               	cpfsgt	main@average^0,c
  1025  007D6C  EFBA  F03E         	goto	u211
  1026  007D70  EFBC  F03E         	goto	u210
  1027  007D74                     u211:
  1028  007D74  EFBF  F03E         	goto	l65
  1029  007D78                     u210:
  1030  007D78                     
  1031                           ;mainL1.c: 117:             LATB = 0b11111111;
  1032  007D78  688A               	setf	138,c	;volatile
  1033  007D7A  EFBF  F03E         	goto	l857
  1034  007D7E                     l65:
  1035  007D7E                     l857:
  1036                           
  1037                           ;mainL1.c: 122:         for (unsigned long i = 0; i < 100000; i++) {
  1038  007D7E  0E00               	movlw	0
  1039  007D80  6E0A               	movwf	main@i_294^0,c
  1040  007D82  0E00               	movlw	0
  1041  007D84  6E0B               	movwf	(main@i_294+1)^0,c
  1042  007D86  0E00               	movlw	0
  1043  007D88  6E0C               	movwf	(main@i_294+2)^0,c
  1044  007D8A  0E00               	movlw	0
  1045  007D8C  6E0D               	movwf	(main@i_294+3)^0,c
  1046  007D8E                     l863:
  1047                           
  1048                           ;mainL1.c: 123:         }
  1049  007D8E  0E01               	movlw	1
  1050  007D90  260A               	addwf	main@i_294^0,f,c
  1051  007D92  0E00               	movlw	0
  1052  007D94  220B               	addwfc	(main@i_294+1)^0,f,c
  1053  007D96  220C               	addwfc	(main@i_294+2)^0,f,c
  1054  007D98  220D               	addwfc	(main@i_294+3)^0,f,c
  1055  007D9A  500D               	movf	(main@i_294+3)^0,w,c
  1056  007D9C  E10D               	bnz	u220
  1057  007D9E  0EA0               	movlw	160
  1058  007DA0  5C0A               	subwf	main@i_294^0,w,c
  1059  007DA2  0E86               	movlw	134
  1060  007DA4  580B               	subwfb	(main@i_294+1)^0,w,c
  1061  007DA6  0E01               	movlw	1
  1062  007DA8  580C               	subwfb	(main@i_294+2)^0,w,c
  1063  007DAA  A0D8               	btfss	status,0,c
  1064  007DAC  EFDA  F03E         	goto	u221
  1065  007DB0  EFDC  F03E         	goto	u220
  1066  007DB4                     u221:
  1067  007DB4  EFC7  F03E         	goto	l863
  1068  007DB8                     u220:
  1069  007DB8                     
  1070                           ;mainL1.c: 126:         counter++;
  1071  007DB8  4A0F               	infsnz	main@counter^0,f,c
  1072  007DBA  2A10               	incf	(main@counter+1)^0,f,c
  1073  007DBC                     
  1074                           ;mainL1.c: 127:         if (counter >= 512) {
  1075  007DBC  BE10               	btfsc	(main@counter+1)^0,7,c
  1076  007DBE  EFE8  F03E         	goto	u231
  1077  007DC2  0E02               	movlw	2
  1078  007DC4  5C10               	subwf	(main@counter+1)^0,w,c
  1079  007DC6  A0D8               	btfss	status,0,c
  1080  007DC8  EFE8  F03E         	goto	u231
  1081  007DCC  EFEA  F03E         	goto	u230
  1082  007DD0                     u231:
  1083  007DD0  EFEE  F03E         	goto	l871
  1084  007DD4                     u230:
  1085  007DD4                     
  1086                           ;mainL1.c: 128:             counter = 0;
  1087  007DD4  0E00               	movlw	0
  1088  007DD6  6E10               	movwf	(main@counter+1)^0,c
  1089  007DD8  0E00               	movlw	0
  1090  007DDA  6E0F               	movwf	main@counter^0,c
  1091  007DDC                     l871:
  1092                           
  1093                           ;mainL1.c: 132:         lastIndex++;
  1094  007DDC  2A0E               	incf	main@lastIndex^0,f,c
  1095  007DDE                     
  1096                           ;mainL1.c: 133:         if (lastIndex >= 8) {
  1097  007DDE  0E07               	movlw	7
  1098  007DE0  640E               	cpfsgt	main@lastIndex^0,c
  1099  007DE2  EFF5  F03E         	goto	u241
  1100  007DE6  EFF7  F03E         	goto	u240
  1101  007DEA                     u241:
  1102  007DEA  EFF9  F03E         	goto	l74
  1103  007DEE                     u240:
  1104  007DEE                     
  1105                           ;mainL1.c: 134:             lastIndex = 0;
  1106  007DEE  0E00               	movlw	0
  1107  007DF0  6E0E               	movwf	main@lastIndex^0,c
  1108  007DF2                     l74:
  1109                           
  1110                           ;mainL1.c: 138:         average = 0;
  1111  007DF2  0E00               	movlw	0
  1112  007DF4  6E13               	movwf	main@average^0,c
  1113  007DF6  EFBF  F03D         	goto	l769
  1114  007DFA  EF00  F008         	goto	start
  1115  007DFE                     __end_of_main:
  1116                           	callstack 0
  1117                           
  1118 ;; *************** function _initChip *****************
  1119 ;; Defined at:
  1120 ;;		line 40 in file "mainL1.c"
  1121 ;; Parameters:    Size  Location     Type
  1122 ;;		None
  1123 ;; Auto vars:     Size  Location     Type
  1124 ;;		None
  1125 ;; Return value:  Size  Location     Type
  1126 ;;                  1    wreg      void 
  1127 ;; Registers used:
  1128 ;;		wreg, status,2
  1129 ;; Tracked objects:
  1130 ;;		On entry : 0/0
  1131 ;;		On exit  : 0/0
  1132 ;;		Unchanged: 0/0
  1133 ;; Data sizes:     COMRAM   BANK0   BANK1   BANK2   BANK3   BANK4   BANK5   BANK6   BANK7
  1134 ;;      Params:         0       0       0       0       0       0       0       0       0
  1135 ;;      Locals:         0       0       0       0       0       0       0       0       0
  1136 ;;      Temps:          0       0       0       0       0       0       0       0       0
  1137 ;;      Totals:         0       0       0       0       0       0       0       0       0
  1138 ;;Total ram usage:        0 bytes
  1139 ;; Hardware stack levels used: 1
  1140 ;; This function calls:
  1141 ;;		Nothing
  1142 ;; This function is called by:
  1143 ;;		_main
  1144 ;; This function uses a non-reentrant model
  1145 ;;
  1146                           
  1147                           	psect	text1
  1148  007B22                     __ptext1:
  1149                           	callstack 0
  1150  007B22                     _initChip:
  1151                           	callstack 30
  1152  007B22                     
  1153                           ;mainL1.c: 42:     OSCTUNE = 0x80;
  1154  007B22  0E80               	movlw	128
  1155  007B24  6E9B               	movwf	155,c	;volatile
  1156                           
  1157                           ;mainL1.c: 43:     OSCCON = 0x70;
  1158  007B26  0E70               	movlw	112
  1159  007B28  6ED3               	movwf	211,c	;volatile
  1160                           
  1161                           ;mainL1.c: 44:     OSCCON2 = 0x10;
  1162  007B2A  0E10               	movlw	16
  1163  007B2C  6ED2               	movwf	210,c	;volatile
  1164                           
  1165                           ;mainL1.c: 47:     ACTCON = 0x90;
  1166  007B2E  0E90               	movlw	144
  1167  007B30  6EB5               	movwf	181,c	;volatile
  1168                           
  1169                           ;mainL1.c: 49:     TRISA = 0b00000001;
  1170  007B32  0E01               	movlw	1
  1171  007B34  6E92               	movwf	146,c	;volatile
  1172                           
  1173                           ;mainL1.c: 50:     LATA = 0x00;
  1174  007B36  0E00               	movlw	0
  1175  007B38  6E89               	movwf	137,c	;volatile
  1176                           
  1177                           ;mainL1.c: 51:     ANSELA = 0b00000000;
  1178  007B3A  0E00               	movlw	0
  1179  007B3C  010F               	movlb	15	; () banked
  1180  007B3E  6F5B               	movwf	91,b	;volatile
  1181                           
  1182                           ;mainL1.c: 52:     ADCON1 = 0x00;
  1183  007B40  0E00               	movlw	0
  1184  007B42  6EC1               	movwf	193,c	;volatile
  1185                           
  1186                           ;mainL1.c: 53:     CM1CON0 = 0x00;
  1187  007B44  0E00               	movlw	0
  1188  007B46  6E98               	movwf	152,c	;volatile
  1189                           
  1190                           ;mainL1.c: 55:     TRISB = 0x00;
  1191  007B48  0E00               	movlw	0
  1192  007B4A  6E93               	movwf	147,c	;volatile
  1193                           
  1194                           ;mainL1.c: 56:     LATB = 0x00;
  1195  007B4C  0E00               	movlw	0
  1196  007B4E  6E8A               	movwf	138,c	;volatile
  1197                           
  1198                           ;mainL1.c: 58:     TRISC = 0x00;
  1199  007B50  0E00               	movlw	0
  1200  007B52  6E94               	movwf	148,c	;volatile
  1201                           
  1202                           ;mainL1.c: 59:     LATC = 0x00;
  1203  007B54  0E00               	movlw	0
  1204  007B56  6E8B               	movwf	139,c	;volatile
  1205  007B58                     
  1206                           ; BSR set to: 15
  1207                           ;mainL1.c: 61:     TRISCbits.RC0 = 1;
  1208  007B58  8094               	bsf	148,0,c	;volatile
  1209  007B5A                     
  1210                           ; BSR set to: 15
  1211                           ;mainL1.c: 62:     TRISAbits.RA4 = 1;
  1212  007B5A  8892               	bsf	146,4,c	;volatile
  1213  007B5C                     
  1214                           ; BSR set to: 15
  1215  007B5C  0012               	return		;funcret
  1216  007B5E                     __end_of_initChip:
  1217                           	callstack 0
  1218                           
  1219                           	psect	rparam
  1220  0000                     tosu	equ	0xFFF
  1221                           tosh	equ	0xFFE
  1222                           tosl	equ	0xFFD
  1223                           stkptr	equ	0xFFC
  1224                           pclatu	equ	0xFFB
  1225                           pclath	equ	0xFFA
  1226                           pcl	equ	0xFF9
  1227                           tblptru	equ	0xFF8
  1228                           tblptrh	equ	0xFF7
  1229                           tblptrl	equ	0xFF6
  1230                           tablat	equ	0xFF5
  1231                           prodh	equ	0xFF4
  1232                           prodl	equ	0xFF3
  1233                           indf0	equ	0xFEF
  1234                           postinc0	equ	0xFEE
  1235                           postdec0	equ	0xFED
  1236                           preinc0	equ	0xFEC
  1237                           plusw0	equ	0xFEB
  1238                           fsr0h	equ	0xFEA
  1239                           fsr0l	equ	0xFE9
  1240                           wreg	equ	0xFE8
  1241                           indf1	equ	0xFE7
  1242                           postinc1	equ	0xFE6
  1243                           postdec1	equ	0xFE5
  1244                           preinc1	equ	0xFE4
  1245                           plusw1	equ	0xFE3
  1246                           fsr1h	equ	0xFE2
  1247                           fsr1l	equ	0xFE1
  1248                           bsr	equ	0xFE0
  1249                           indf2	equ	0xFDF
  1250                           postinc2	equ	0xFDE
  1251                           postdec2	equ	0xFDD
  1252                           preinc2	equ	0xFDC
  1253                           plusw2	equ	0xFDB
  1254                           fsr2h	equ	0xFDA
  1255                           fsr2l	equ	0xFD9
  1256                           status	equ	0xFD8

Data Sizes:
    Strings     0
    Constant    512
    Data        0
    BSS         8
    Persistent  0
    Stack       0

Auto Spaces:
    Space          Size  Autos    Used
    COMRAM           95     19      27
    BANK0           160      0       0
    BANK1           256      0       0
    BANK2           256      0       0
    BANK3           256      0       0
    BANK4           256      0       0
    BANK5           256      0       0
    BANK6           256      0       0
    BANK7           256      0       0

Pointer List with Targets:

    None.

Critical Paths under _main in COMRAM

    None.

Critical Paths under _main in BANK0

    None.

Critical Paths under _main in BANK1

    None.

Critical Paths under _main in BANK2

    None.

Critical Paths under _main in BANK3

    None.

Critical Paths under _main in BANK4

    None.

Critical Paths under _main in BANK5

    None.

Critical Paths under _main in BANK6

    None.

Critical Paths under _main in BANK7

    None.

Call Graph Tables:

 ---------------------------------------------------------------------------------
 (Depth) Function   	        Calls       Base Space   Used Autos Params    Refs
 ---------------------------------------------------------------------------------
 (0) _main                                                21    21      0     480
                                              0 COMRAM    19    19      0
                           _initChip
 ---------------------------------------------------------------------------------
 (1) _initChip                                             0     0      0       0
 ---------------------------------------------------------------------------------
 Estimated maximum stack depth 1
 ---------------------------------------------------------------------------------

 Call Graph Graphs:

 _main (ROOT)
   _initChip

 Address spaces:
Name               Size   Autos  Total    Cost      Usage
BIGRAM             7FF      0       0      21        0.0%
EEDATA             100      0       0       0        0.0%
BITBANK7           100      0       0      19        0.0%
BANK7              100      0       0      20        0.0%
BITBANK6           100      0       0      17        0.0%
BANK6              100      0       0      18        0.0%
BITBANK5           100      0       0      15        0.0%
BANK5              100      0       0      16        0.0%
BITBANK4           100      0       0      13        0.0%
BANK4              100      0       0      14        0.0%
BITBANK3           100      0       0      11        0.0%
BANK3              100      0       0      12        0.0%
BITBANK2           100      0       0       9        0.0%
BANK2              100      0       0      10        0.0%
BITBANK1           100      0       0       7        0.0%
BANK1              100      0       0       8        0.0%
BITBANK0            A0      0       0       4        0.0%
BANK0               A0      0       0       5        0.0%
BITCOMRAM           5F      0       0       0        0.0%
COMRAM              5F     13      1B       1       28.4%
BITSFR_1             0      0       0     200        0.0%
SFR_1                0      0       0     200        0.0%
BITSFR               0      0       0     200        0.0%
SFR                  0      0       0     200        0.0%
STACK                0      0       0       2        0.0%
NULL                 0      0       0       0        0.0%
ABS                  0      0      1B       6        0.0%
DATA                 0      0      1B       3        0.0%
CODE                 0      0       0       0        0.0%


Microchip Technology PIC18 Macro Assembler V2.32 build 20210201212658 
Symbol Table                                                                                   Wed Nov  3 00:10:52 2021

                     l39 7B5C                       l65 7D7E                       l74 7DF2  
                     u11 7B64                       u20 7B90                       u21 7B8C  
                     u30 7BB6                       u31 7BB2                       u40 7BD0  
                     u41 7BCC                       u50 7C22                       u51 7C1E  
                     u60 7C48                       u61 7C44                       u70 7C60  
                     u71 7C5C                       u80 7C70                       u81 7C6C  
                     u90 7C88                       u91 7C84                      l801 7C10  
                    l811 7C50                      l803 7C12                      l821 7C98  
                    l813 7C60                      l805 7C26                      l831 7CD8  
                    l823 7CA0                      l815 7C70                      l807 7C38  
                    l753 7B22                      l841 7D18                      l833 7CE8  
                    l825 7CB0                      l817 7C78                      l809 7C48  
                    l761 7B6A                      l755 7B58                      l851 7D60  
                    l843 7D28                      l835 7CF0                      l827 7CC0  
                    l819 7C88                      l771 7B80                      l763 7B72  
                    l757 7B5A                      l853 7D68                      l845 7D38  
                    l837 7D00                      l829 7CC8                      l781 7B94  
                    l773 7B82                      l765 7B76                      l871 7DDC  
                    l863 7D8E                      l855 7D78                      l847 7D40  
                    l839 7D10                      l791 7BD0                      l783 7BA4  
                    l775 7B90                      l767 7B7A                      l759 7B5E  
                    l873 7DDE                      l865 7DB8                      l849 7D50  
                    l857 7D7E                      l793 7BEE                      l785 7BA6  
                    l769 7B7E                      l875 7DEE                      l867 7DBC  
                    l787 7BB6                      l869 7DD4                      l789 7BC2  
                    l799 7BF2                      u100 7C98                      u101 7C94  
                    u110 7CB0                      u111 7CAC                      u200 7D60  
                    u120 7CC0                      u201 7D5C                      u121 7CBC  
                    u210 7D78                      u130 7CD8                      u211 7D74  
                    u131 7CD4                      u220 7DB8                      u140 7CE8  
                    u221 7DB4                      u141 7CE4                      u230 7DD4  
                    u150 7D00                      u231 7DD0                      u151 7CFC  
                    u240 7DEE                      u160 7D10                      u241 7DEA  
                    u161 7D0C                      u170 7D28                      u171 7D24  
                    u180 7D38                      u181 7D34                      u190 7D50  
                    u191 7D4C                      wreg 000FE8              main@average 0013  
                   _LATA 000F89                     _LATB 000F8A                     _LATC 000F8B  
            main@counter 000F                     _data 7DFF                     _main 7B5E  
                   indf2 000FDF                     fsr2l 000FD9                     start 1000  
           ___param_bank 000000             main@dataQueu 0002                    ?_main 0001  
                  _TRISA 000F92                    _TRISB 000F93                    _TRISC 000F94  
                  main@i 0011                    tablat 000FF5                    status 000FD8  
        __initialization 7B0C             __end_of_data 7FFF             __end_of_main 7DFE  
                 ??_main 0001            __activetblptr 000002                   _ADCON1 000FC1  
                 _ACTCON 000FB5                   _ANSELA 000F5B            main@lastIndex 000E  
                 _OSCCON 000FD3         __end_of_initChip 7B5E                   clear_0 7B12  
                 isa$std 000001             __mediumconst 7DFE                   tblptrh 000FF7  
                 tblptrl 000FF6                   tblptru 000FF8               __accesstop 0060  
__end_of__initialization 7B18            ___rparam_used 000001           __pcstackCOMRAM 0001  
                _CM1CON0 000F98                  _OSCCON2 000FD2                  _OSCTUNE 000F9B  
              ?_initChip 0001                  __Hparam 0000                  __Lparam 0000  
                __pcinit 7B0C                  __ramtop 0800                  __ptext0 7B5E  
                __ptext1 7B22     end_of_initialization 7B18               ??_initChip 0001  
          __Lmediumconst 7DFE                  postinc0 000FEE                  postinc2 000FDE  
              _PORTAbits 000F80                _PORTCbits 000F82                _TRISAbits 000F92  
              _TRISCbits 000F94      start_initialization 7B0C              __pbssCOMRAM 0014  
      __size_of_initChip 003C            __pmediumconst 7DFE                main@F4565 0014  
              main@i_293 0012                main@i_294 000A                 __Hrparam 0000  
               __Lrparam 0000                 _initChip 7B22            __size_of_main 02A0  
               isa$xinst 000000  
